; Function Attrs: mustprogress nounwind uwtable
define noundef i32 @_ZN8facebook5velox4core21PartitionedOutputNode12stringToKindENSt7__cxx1112basic_stringIcSt11char_traitsIcESaIcEEE(ptr noundef nonnull %str) local_unnamed_addr #3 align 2 {
entry:
  %call.i = tail call noundef i32 @_ZNKSt7__cxx1112basic_stringIcSt11char_traitsIcESaIcEE7compareEPKc(ptr noundef nonnull align 8 dereferenceable(32) %str, ptr noundef nonnull @.str.107) #30
  %cmp.i = icmp eq i32 %call.i, 0
  br i1 %cmp.i, label %return, label %if.else

if.else:                                          ; preds = %entry
  %call.i1 = tail call noundef i32 @_ZNKSt7__cxx1112basic_stringIcSt11char_traitsIcESaIcEE7compareEPKc(ptr noundef nonnull align 8 dereferenceable(32) %str, ptr noundef nonnull @.str.108) #30
  %cmp.i2 = icmp eq i32 %call.i1, 0
  br i1 %cmp.i2, label %return, label %if.else3

if.else3:                                         ; preds = %if.else
  %call.i3 = tail call noundef i32 @_ZNKSt7__cxx1112basic_stringIcSt11char_traitsIcESaIcEE7compareEPKc(ptr noundef nonnull align 8 dereferenceable(32) %str, ptr noundef nonnull @.str.109) #30
  %cmp.i4 = icmp eq i32 %call.i3, 0
  br i1 %cmp.i4, label %return, label %if.else6

if.else6:                                         ; preds = %if.else3
  tail call void @llvm.trap()
  unreachable

return:                                           ; preds = %if.else3, %if.else, %entry
  %retval.0 = phi i32 [ 0, %entry ], [ 1, %if.else ], [ 2, %if.else3 ]
  ret i32 %retval.0
}